; Function Attrs: nounwind uwtable
define hidden i32 @zend_get_return_info_from_signature_only(ptr nocapture noundef readonly %0, ptr noundef %1, ptr noundef %2, ptr nocapture noundef writeonly %3, i1 noundef zeroext %4) local_unnamed_addr #0 {
  %6 = getelementptr inbounds i8, ptr %0, i64 4
  %7 = load i32, ptr %6, align 4
  %8 = and i32 %7, 8192
  %.not = icmp eq i32 %8, 0
  br i1 %.not, label %16, label %9

9:                                                ; preds = %5
  %.phi.trans.insert = getelementptr inbounds i8, ptr %0, i64 40
  %.pre = load ptr, ptr %.phi.trans.insert, align 8
  %.phi.trans.insert19 = getelementptr inbounds i8, ptr %.pre, i64 -16
  %.pre20 = load i32, ptr %.phi.trans.insert19, align 8
  %10 = and i32 %.pre20, 536870912
  %.not16 = icmp eq i32 %10, 0
  %or.cond21 = select i1 %4, i1 true, i1 %.not16
  br i1 %or.cond21, label %._crit_edge, label %16

._crit_edge:                                      ; preds = %9
  %11 = getelementptr inbounds i8, ptr %.pre, i64 -24
  %12 = load ptr, ptr %11, align 8
  %13 = tail call fastcc i32 @zend_convert_type(ptr noundef %1, ptr %12, i32 %.pre20, ptr noundef %2)
  %14 = icmp ne ptr %2, null
  %15 = zext i1 %14 to i8
  br label %17

16:                                               ; preds = %9, %5
  store ptr null, ptr %2, align 8
  br label %17

17:                                               ; preds = %16, %._crit_edge
  %storemerge = phi i8 [ 0, %16 ], [ %15, %._crit_edge ]
  %.0 = phi i32 [ -520094722, %16 ], [ %13, %._crit_edge ]
  store i8 %storemerge, ptr %3, align 1
  %18 = load i32, ptr %6, align 4
  %19 = and i32 %18, 16781312
  %or.cond = icmp eq i32 %19, 4096
  br i1 %or.cond, label %20, label %22

20:                                               ; preds = %17
  %21 = or i32 %.0, 1024
  store ptr null, ptr %2, align 8
  store i8 0, ptr %3, align 1
  br label %22

22:                                               ; preds = %20, %17
  %.1 = phi i32 [ %21, %20 ], [ %.0, %17 ]
  ret i32 %.1
}